(dp0
Vengine
p1
S'pdflatex'
p2
sVpackages
p3
c__builtin__
set
p4
((lp5
Vauthblk
p6
aVtitlesec
p7
aVnicefrac
p8
aVgeometry
p9
aVbiblatex
p10
aVmultirow
p11
aVfancyhdr
p12
aVamsmath
p13
aVlastpage
p14
aVamssymb
p15
aVepstopdf
p16
aVcaption
p17
aVgraphicx
p18
aVsubcaption
p19
aVvarioref
p20
atp21
Rp22
sVfiles_with_guttermarks
p23
g4
((lp24
V/Users/brianlibgober/Dropbox/Digit_stats/Tex/Current Draft/./main.aux
p25
aV/Users/brianlibgober/Dropbox/Digit_stats/Tex/Current Draft/./Sections/LitReview.tex
p26
aV/Users/brianlibgober/Dropbox/Digit_stats/Tex/Current Draft/Sections/RD2.tex
p27
aV/Users/brianlibgober/Dropbox/Digit_stats/Tex/Current Draft/./main.tex
p28
aV/Users/brianlibgober/Dropbox/Digit_stats/Tex/Current Draft/./Sections/RD2.tex
p29
aS'main.tex'
p30
aV/Users/brianlibgober/Dropbox/Digit_stats/Tex/Current Draft/Sections/LitReview.tex
p31
aV/Users/brianlibgober/Dropbox/Digit_stats/Tex/Current Draft/./Sections/RD.tex
p32
atp33
Rp34
sVsynctex
p35
I01
s.